target datalayout = "e-m:e-p270:32:32-p271:32:32-p272:64:64-i64:64-i128:128-f80:128-n8:16:32:64-S128"
target triple = "x86_64-pc-linux-gnu"

%struct._object = type { %union.anon, ptr }
%union.anon = type { i64 }
%struct._curses_panel_state = type { ptr, ptr }

; Function Attrs: inlinehint nounwind uwtable
define internal ptr @get_curses_panel_state(ptr noundef %0) #3 {
  %2 = alloca ptr, align 8
  %3 = alloca ptr, align 8
  store ptr %0, ptr %2, align 8, !tbaa !3
  call void @llvm.lifetime.start.p0(i64 8, ptr %3) #5
  %4 = load ptr, ptr %2, align 8, !tbaa !3
  %5 = call ptr @PyModule_GetState(ptr noundef %4)
  store ptr %5, ptr %3, align 8, !tbaa !8
  %6 = load ptr, ptr %3, align 8, !tbaa !8
  call void @llvm.lifetime.end.p0(i64 8, ptr %3) #5
  ret ptr %6
}

; Function Attrs: inlinehint nounwind uwtable
define internal ptr @_Py_TYPE(ptr noundef %0) #3 {
  %2 = alloca ptr, align 8
  store ptr %0, ptr %2, align 8, !tbaa !3
  %3 = load ptr, ptr %2, align 8, !tbaa !3
  %4 = getelementptr inbounds nuw %struct._object, ptr %3, i32 0, i32 1
  %5 = load ptr, ptr %4, align 8, !tbaa !45
  ret ptr %5
}

; Function Attrs: nounwind uwtable
define internal i32 @_curses_panel_traverse(ptr noundef %0, ptr noundef %1, ptr noundef %2) #0 {
  %4 = alloca i32, align 4
  %5 = alloca ptr, align 8
  %6 = alloca ptr, align 8
  %7 = alloca ptr, align 8
  %8 = alloca i32, align 4
  %9 = alloca i32, align 4
  %10 = alloca ptr, align 8
  %11 = alloca i32, align 4
  %12 = alloca i32, align 4
  store ptr %0, ptr %5, align 8, !tbaa !3
  store ptr %1, ptr %6, align 8, !tbaa !8
  store ptr %2, ptr %7, align 8, !tbaa !8
  br label %13

13:                                               ; preds = %3
  %14 = load ptr, ptr %5, align 8, !tbaa !3
  %15 = call ptr @_Py_TYPE(ptr noundef %14)
  %16 = icmp ne ptr %15, null
  br i1 %16, label %17, label %31

17:                                               ; preds = %13
  call void @llvm.lifetime.start.p0(i64 4, ptr %8) #5
  %18 = load ptr, ptr %6, align 8, !tbaa !8
  %19 = load ptr, ptr %5, align 8, !tbaa !3
  %20 = call ptr @_Py_TYPE(ptr noundef %19)
  %21 = load ptr, ptr %7, align 8, !tbaa !8
  %22 = call i32 %18(ptr noundef %20, ptr noundef %21)
  store i32 %22, ptr %8, align 4, !tbaa !9
  %23 = load i32, ptr %8, align 4, !tbaa !9
  %24 = icmp ne i32 %23, 0
  br i1 %24, label %25, label %27

25:                                               ; preds = %17
  %26 = load i32, ptr %8, align 4, !tbaa !9
  store i32 %26, ptr %4, align 4
  store i32 1, ptr %9, align 4
  br label %28

27:                                               ; preds = %17
  store i32 0, ptr %9, align 4
  br label %28

28:                                               ; preds = %27, %25
  call void @llvm.lifetime.end.p0(i64 4, ptr %8) #5
  %29 = load i32, ptr %9, align 4
  switch i32 %29, label %84 [
    i32 0, label %30
    i32 1, label %82
  ]

30:                                               ; preds = %28
  br label %31

31:                                               ; preds = %30, %13
  br label %32

32:                                               ; preds = %31
  call void @llvm.lifetime.start.p0(i64 8, ptr %10) #5
  %33 = load ptr, ptr %5, align 8, !tbaa !3
  %34 = call ptr @get_curses_panel_state(ptr noundef %33)
  store ptr %34, ptr %10, align 8, !tbaa !8
  br label %35

35:                                               ; preds = %32
  %36 = load ptr, ptr %10, align 8, !tbaa !8
  %37 = getelementptr inbounds nuw %struct._curses_panel_state, ptr %36, i32 0, i32 0
  %38 = load ptr, ptr %37, align 8, !tbaa !11
  %39 = icmp ne ptr %38, null
  br i1 %39, label %40, label %55

40:                                               ; preds = %35
  call void @llvm.lifetime.start.p0(i64 4, ptr %11) #5
  %41 = load ptr, ptr %6, align 8, !tbaa !8
  %42 = load ptr, ptr %10, align 8, !tbaa !8
  %43 = getelementptr inbounds nuw %struct._curses_panel_state, ptr %42, i32 0, i32 0
  %44 = load ptr, ptr %43, align 8, !tbaa !11
  %45 = load ptr, ptr %7, align 8, !tbaa !8
  %46 = call i32 %41(ptr noundef %44, ptr noundef %45)
  store i32 %46, ptr %11, align 4, !tbaa !9
  %47 = load i32, ptr %11, align 4, !tbaa !9
  %48 = icmp ne i32 %47, 0
  br i1 %48, label %49, label %51

49:                                               ; preds = %40
  %50 = load i32, ptr %11, align 4, !tbaa !9
  store i32 %50, ptr %4, align 4
  store i32 1, ptr %9, align 4
  br label %52

51:                                               ; preds = %40
  store i32 0, ptr %9, align 4
  br label %52

52:                                               ; preds = %51, %49
  call void @llvm.lifetime.end.p0(i64 4, ptr %11) #5
  %53 = load i32, ptr %9, align 4
  switch i32 %53, label %81 [
    i32 0, label %54
  ]

54:                                               ; preds = %52
  br label %55

55:                                               ; preds = %54, %35
  br label %56

56:                                               ; preds = %55
  br label %57

57:                                               ; preds = %56
  br label %58

58:                                               ; preds = %57
  %59 = load ptr, ptr %10, align 8, !tbaa !8
  %60 = getelementptr inbounds nuw %struct._curses_panel_state, ptr %59, i32 0, i32 1
  %61 = load ptr, ptr %60, align 8, !tbaa !14
  %62 = icmp ne ptr %61, null
  br i1 %62, label %63, label %78

63:                                               ; preds = %58
  call void @llvm.lifetime.start.p0(i64 4, ptr %12) #5
  %64 = load ptr, ptr %6, align 8, !tbaa !8
  %65 = load ptr, ptr %10, align 8, !tbaa !8
  %66 = getelementptr inbounds nuw %struct._curses_panel_state, ptr %65, i32 0, i32 1
  %67 = load ptr, ptr %66, align 8, !tbaa !14
  %68 = load ptr, ptr %7, align 8, !tbaa !8
  %69 = call i32 %64(ptr noundef %67, ptr noundef %68)
  store i32 %69, ptr %12, align 4, !tbaa !9
  %70 = load i32, ptr %12, align 4, !tbaa !9
  %71 = icmp ne i32 %70, 0
  br i1 %71, label %72, label %74

72:                                               ; preds = %63
  %73 = load i32, ptr %12, align 4, !tbaa !9
  store i32 %73, ptr %4, align 4
  store i32 1, ptr %9, align 4
  br label %75

74:                                               ; preds = %63
  store i32 0, ptr %9, align 4
  br label %75

75:                                               ; preds = %74, %72
  call void @llvm.lifetime.end.p0(i64 4, ptr %12) #5
  %76 = load i32, ptr %9, align 4
  switch i32 %76, label %81 [
    i32 0, label %77
  ]

77:                                               ; preds = %75
  br label %78

78:                                               ; preds = %77, %58
  br label %79

79:                                               ; preds = %78
  br label %80

80:                                               ; preds = %79
  store i32 0, ptr %4, align 4
  store i32 1, ptr %9, align 4
  br label %81

81:                                               ; preds = %80, %75, %52
  call void @llvm.lifetime.end.p0(i64 8, ptr %10) #5
  br label %82

82:                                               ; preds = %81, %28
  %83 = load i32, ptr %4, align 4
  ret i32 %83

84:                                               ; preds = %28
  unreachable
}