; Function Attrs: nounwind uwtable
define internal i32 @_curses_panel_traverse(ptr noundef %0, ptr noundef readonly captures(none) %1, ptr noundef %2) #0 {
  %4 = getelementptr i8, ptr %0, i64 8
  %.val = load ptr, ptr %4, align 8, !tbaa !3
  %.not = icmp eq ptr %.val, null
  br i1 %.not, label %7, label %5

5:                                                ; preds = %3
  %6 = tail call i32 %1(ptr noundef nonnull %.val, ptr noundef %2) #4
  %.not29.not = icmp eq i32 %6, 0
  br i1 %.not29.not, label %7, label %18

7:                                                ; preds = %5, %3
  %8 = tail call ptr @PyModule_GetState(ptr noundef nonnull %0) #4
  %9 = load ptr, ptr %8, align 8, !tbaa !9
  %.not30 = icmp eq ptr %9, null
  br i1 %.not30, label %12, label %10

10:                                               ; preds = %7
  %11 = tail call i32 %1(ptr noundef nonnull %9, ptr noundef %2) #4
  %.not31 = icmp eq i32 %11, 0
  br i1 %.not31, label %12, label %18

12:                                               ; preds = %7, %10
  %13 = getelementptr inbounds nuw i8, ptr %8, i64 8
  %14 = load ptr, ptr %13, align 8, !tbaa !12
  %.not32 = icmp eq ptr %14, null
  br i1 %.not32, label %17, label %15

15:                                               ; preds = %12
  %16 = tail call i32 %1(ptr noundef nonnull %14, ptr noundef %2) #4
  %.not33 = icmp eq i32 %16, 0
  br i1 %.not33, label %17, label %18

17:                                               ; preds = %15, %12
  br label %18

18:                                               ; preds = %5, %17, %15, %10
  %.1 = phi i32 [ %6, %5 ], [ 0, %17 ], [ %16, %15 ], [ %11, %10 ]
  ret i32 %.1
}